; ModuleID = 'bench/curl/original/tool_cb_soc.ll'
source_filename = "bench/curl/original/tool_cb_soc.ll"
target datalayout = "e-m:e-p270:32:32-p271:32:32-p272:64:64-i64:64-i128:128-f80:128-n8:16:32:64-S128"
target triple = "x86_64-pc-linux-gnu"

; Function Attrs: nounwind uwtable
define dso_local i32 @tool_socket_open_mptcp_cb(ptr noundef readnone captures(none) %0, i32 noundef %1, ptr noundef readonly captures(none) %2) local_unnamed_addr #0 {
  %4 = getelementptr inbounds nuw i8, ptr %2, i64 8
  %5 = load i32, ptr %4, align 4, !tbaa !4
  %6 = icmp eq i32 %5, 6
  %spec.store.select = select i1 %6, i32 262, i32 %5
  %7 = load i32, ptr %2, align 4, !tbaa !11
  %8 = getelementptr inbounds nuw i8, ptr %2, i64 4
  %9 = load i32, ptr %8, align 4, !tbaa !12
  %10 = tail call i32 @socket(i32 noundef %7, i32 noundef %9, i32 noundef %spec.store.select) #2
  ret i32 %10
}

; Function Attrs: nounwind
declare i32 @socket(i32 noundef, i32 noundef, i32 noundef) local_unnamed_addr #1


!llvm.module.flags = !{!0, !1, !2, !3}

!0 = !{i32 1, !"wchar_size", i32 4}
!1 = !{i32 8, !"PIC Level", i32 2}
!2 = !{i32 7, !"PIE Level", i32 2}
!3 = !{i32 7, !"uwtable", i32 2}
!4 = !{!5, !6, i64 8}
!5 = !{!"curl_sockaddr", !6, i64 0, !6, i64 4, !6, i64 8, !6, i64 12, !9, i64 16}
!6 = !{!"int", !7, i64 0}
!7 = !{!"omnipotent char", !8, i64 0}
!8 = !{!"Simple C/C++ TBAA"}
!9 = !{!"sockaddr", !10, i64 0, !7, i64 2}
!10 = !{!"short", !7, i64 0}
!11 = !{!5, !6, i64 0}
!12 = !{!5, !6, i64 4}
